; Function Attrs: mustprogress nounwind uwtable
define hidden void @_ZN10WeakHandle7releaseEP10OopStorage(ptr nocapture noundef nonnull align 8 dereferenceable(8) %0, ptr noundef %1) local_unnamed_addr #0 align 2 {
  %3 = load ptr, ptr %0, align 8
  %.not = icmp eq ptr %3, null
  br i1 %.not, label %7, label %4

4:                                                ; preds = %2
  %5 = load ptr, ptr @_ZN14AccessInternal15RuntimeDispatchILm598084EP7oopDescLNS_11BarrierTypeE0EE11_store_funcE, align 8
  tail call void %5(ptr noundef nonnull %3, ptr noundef null) #5
  %6 = load ptr, ptr %0, align 8
  tail call void @_ZN10OopStorage7releaseEPKP7oopDesc(ptr noundef nonnull align 8 dereferenceable(126) %1, ptr noundef %6) #5
  store ptr null, ptr %0, align 8
  br label %7

7:                                                ; preds = %4, %2
  ret void
}